; Function Attrs: mustprogress uwtable
define hidden void @_ZN4lean11fold_bin_opEbRKNS_4exprES2_S2_(ptr dead_on_unwind noalias writable sret(%"class.lean::optional") align 8 %0, i1 noundef zeroext %1, ptr noundef nonnull readonly align 8 captures(none) dereferenceable(8) %2, ptr noundef nonnull readonly align 8 captures(none) dereferenceable(8) %3, ptr noundef nonnull readonly align 8 captures(none) dereferenceable(8) %4) local_unnamed_addr #1 {
  %6 = load ptr, ptr %2, align 8, !tbaa !12
  %7 = ptrtoint ptr %6 to i64
  %8 = and i64 %7, 1
  %.not.i = icmp eq i64 %8, 0
  br i1 %.not.i, label %9, label %_ZN4lean3incEP11lean_object.exit

9:                                                ; preds = %5
  %.val.i.i = load i32, ptr %6, align 4, !tbaa !15
  %10 = icmp sgt i32 %.val.i.i, 0
  br i1 %10, label %11, label %13, !prof !17

11:                                               ; preds = %9
  %12 = add nuw nsw i32 %.val.i.i, 1
  store i32 %12, ptr %6, align 4, !tbaa !15
  br label %_ZN4lean3incEP11lean_object.exit

13:                                               ; preds = %9
  %.not.i.i = icmp eq i32 %.val.i.i, 0
  br i1 %.not.i.i, label %_ZN4lean3incEP11lean_object.exit, label %14

14:                                               ; preds = %13
  tail call void @lean_inc_ref_cold(ptr noundef nonnull %6)
  br label %_ZN4lean3incEP11lean_object.exit

_ZN4lean3incEP11lean_object.exit:                 ; preds = %5, %11, %13, %14
  %15 = load ptr, ptr %3, align 8, !tbaa !12
  %16 = ptrtoint ptr %15 to i64
  %17 = and i64 %16, 1
  %.not.i6 = icmp eq i64 %17, 0
  br i1 %.not.i6, label %18, label %_ZN4lean3incEP11lean_object.exit9

18:                                               ; preds = %_ZN4lean3incEP11lean_object.exit
  %.val.i.i7 = load i32, ptr %15, align 4, !tbaa !15
  %19 = icmp sgt i32 %.val.i.i7, 0
  br i1 %19, label %20, label %22, !prof !17

20:                                               ; preds = %18
  %21 = add nuw nsw i32 %.val.i.i7, 1
  store i32 %21, ptr %15, align 4, !tbaa !15
  br label %_ZN4lean3incEP11lean_object.exit9

22:                                               ; preds = %18
  %.not.i.i8 = icmp eq i32 %.val.i.i7, 0
  br i1 %.not.i.i8, label %_ZN4lean3incEP11lean_object.exit9, label %23

23:                                               ; preds = %22
  tail call void @lean_inc_ref_cold(ptr noundef nonnull %15)
  br label %_ZN4lean3incEP11lean_object.exit9

_ZN4lean3incEP11lean_object.exit9:                ; preds = %_ZN4lean3incEP11lean_object.exit, %20, %22, %23
  %24 = load ptr, ptr %4, align 8, !tbaa !12
  %25 = ptrtoint ptr %24 to i64
  %26 = and i64 %25, 1
  %.not.i10 = icmp eq i64 %26, 0
  br i1 %.not.i10, label %27, label %_ZN4lean3incEP11lean_object.exit13

27:                                               ; preds = %_ZN4lean3incEP11lean_object.exit9
  %.val.i.i11 = load i32, ptr %24, align 4, !tbaa !15
  %28 = icmp sgt i32 %.val.i.i11, 0
  br i1 %28, label %29, label %31, !prof !17

29:                                               ; preds = %27
  %30 = add nuw nsw i32 %.val.i.i11, 1
  store i32 %30, ptr %24, align 4, !tbaa !15
  br label %_ZN4lean3incEP11lean_object.exit13

31:                                               ; preds = %27
  %.not.i.i12 = icmp eq i32 %.val.i.i11, 0
  br i1 %.not.i.i12, label %_ZN4lean3incEP11lean_object.exit13, label %32

32:                                               ; preds = %31
  tail call void @lean_inc_ref_cold(ptr noundef nonnull %24)
  %.pre = load ptr, ptr %4, align 8, !tbaa !12
  br label %_ZN4lean3incEP11lean_object.exit13

_ZN4lean3incEP11lean_object.exit13:               ; preds = %_ZN4lean3incEP11lean_object.exit9, %29, %31, %32
  %33 = phi ptr [ %24, %_ZN4lean3incEP11lean_object.exit9 ], [ %24, %29 ], [ %24, %31 ], [ %.pre, %32 ]
  %34 = zext i1 %1 to i8
  %35 = load ptr, ptr %2, align 8, !tbaa !12
  %36 = load ptr, ptr %3, align 8, !tbaa !12
  %37 = tail call ptr @lean_fold_bin_op(i8 noundef zeroext %34, ptr noundef %35, ptr noundef %36, ptr noundef %33)
  tail call void @_ZN4lean16to_optional_exprEP11lean_object(ptr dead_on_unwind writable sret(%"class.lean::optional") align 8 %0, ptr noundef %37)
  ret void
}